; ModuleID = 'source-C-CXX/30/1922.c'
source_filename = "source-C-CXX/30/1922.c"
target datalayout = "e-m:e-p270:32:32-p271:32:32-p272:64:64-i64:64-f80:128-n8:16:32:64-S128"
target triple = "x86_64-pc-linux-gnu"

%struct._IO_FILE = type { i32, i8*, i8*, i8*, i8*, i8*, i8*, i8*, i8*, i8*, i8*, i8*, %struct._IO_marker*, %struct._IO_FILE*, i32, i32, i64, i16, i8, [1 x i8], i8*, i64, %struct._IO_codecvt*, %struct._IO_wide_data*, %struct._IO_FILE*, i8*, i64, i32, [20 x i8] }
%struct._IO_marker = type opaque
%struct._IO_codecvt = type opaque
%struct._IO_wide_data = type opaque
%struct.student = type { [20 x i8], [20 x i8], i8, i32, [10 x i8], [20 x i8], %struct.student* }

@n = dso_local local_unnamed_addr global i32 1, align 4
@.str = private unnamed_addr constant [3 x i8] c"%s\00", align 1
@.str.1 = private unnamed_addr constant [4 x i8] c"end\00", align 1
@.str.2 = private unnamed_addr constant [15 x i8] c"%s %c %d %s %s\00", align 1
@.str.3 = private unnamed_addr constant [19 x i8] c"%s %s %c %d %s %s\0A\00", align 1
@stdin = external local_unnamed_addr global %struct._IO_FILE*, align 8

; Function Attrs: nofree nounwind sspstrong uwtable
define dso_local %struct.student* @appendnewnode() local_unnamed_addr #0 {
  %1 = tail call noalias align 16 dereferenceable_or_null(88) i8* @malloc(i64 88) #4
  %2 = bitcast i8* %1 to %struct.student*
  %3 = getelementptr inbounds %struct.student, %struct.student* %2, i64 0, i32 0, i64 0
  %4 = tail call i32 (i8*, ...) @__isoc99_scanf(i8* getelementptr inbounds ([3 x i8], [3 x i8]* @.str, i64 0, i64 0), i8* %3)
  %5 = load %struct._IO_FILE*, %struct._IO_FILE** @stdin, align 8, !tbaa !5
  %6 = tail call i32 @getc(%struct._IO_FILE* %5) #4
  %7 = tail call i32 @strcmp(i8* noundef nonnull dereferenceable(1) %3, i8* noundef nonnull dereferenceable(4) getelementptr inbounds ([4 x i8], [4 x i8]* @.str.1, i64 0, i64 0)) #5
  %8 = icmp eq i32 %7, 0
  br i1 %8, label %31, label %9

9:                                                ; preds = %0, %9
  %10 = phi %struct.student* [ %24, %9 ], [ %2, %0 ]
  %11 = phi %struct.student* [ %10, %9 ], [ undef, %0 ]
  %12 = getelementptr inbounds %struct.student, %struct.student* %10, i64 0, i32 1, i64 0
  %13 = getelementptr inbounds %struct.student, %struct.student* %10, i64 0, i32 2
  %14 = getelementptr inbounds %struct.student, %struct.student* %10, i64 0, i32 3
  %15 = getelementptr inbounds %struct.student, %struct.student* %10, i64 0, i32 4, i64 0
  %16 = getelementptr inbounds %struct.student, %struct.student* %10, i64 0, i32 5, i64 0
  %17 = tail call i32 (i8*, ...) @__isoc99_scanf(i8* getelementptr inbounds ([15 x i8], [15 x i8]* @.str.2, i64 0, i64 0), i8* nonnull %12, i8* nonnull %13, i32* nonnull %14, i8* nonnull %15, i8* nonnull %16)
  %18 = load i32, i32* @n, align 4, !tbaa !9
  %19 = icmp eq i32 %18, 1
  %20 = select i1 %19, %struct.student* null, %struct.student* %11
  %21 = getelementptr inbounds %struct.student, %struct.student* %10, i64 0, i32 6
  store %struct.student* %20, %struct.student** %21, align 16
  %22 = add nsw i32 %18, 1
  store i32 %22, i32* @n, align 4, !tbaa !9
  %23 = tail call noalias align 16 dereferenceable_or_null(88) i8* @malloc(i64 88) #4
  %24 = bitcast i8* %23 to %struct.student*
  %25 = getelementptr inbounds %struct.student, %struct.student* %24, i64 0, i32 0, i64 0
  %26 = tail call i32 (i8*, ...) @__isoc99_scanf(i8* getelementptr inbounds ([3 x i8], [3 x i8]* @.str, i64 0, i64 0), i8* %25)
  %27 = load %struct._IO_FILE*, %struct._IO_FILE** @stdin, align 8, !tbaa !5
  %28 = tail call i32 @getc(%struct._IO_FILE* %27) #4
  %29 = tail call i32 @strcmp(i8* noundef nonnull dereferenceable(1) %25, i8* noundef nonnull dereferenceable(4) getelementptr inbounds ([4 x i8], [4 x i8]* @.str.1, i64 0, i64 0)) #5
  %30 = icmp eq i32 %29, 0
  br i1 %30, label %31, label %9

31:                                               ; preds = %9, %0
  %32 = phi %struct.student* [ undef, %0 ], [ %10, %9 ]
  ret %struct.student* %32
}

; Function Attrs: inaccessiblememonly mustprogress nofree nounwind willreturn
declare noalias noundef align 16 i8* @malloc(i64 noundef) local_unnamed_addr #1

; Function Attrs: nofree nounwind
declare noundef i32 @__isoc99_scanf(i8* nocapture noundef readonly, ...) local_unnamed_addr #2

; Function Attrs: argmemonly mustprogress nofree nounwind readonly willreturn
declare i32 @strcmp(i8* nocapture, i8* nocapture) local_unnamed_addr #3

; Function Attrs: nofree nounwind sspstrong uwtable
define dso_local void @main() local_unnamed_addr #0 {
  %1 = tail call %struct.student* @appendnewnode()
  br label %2

2:                                                ; preds = %2, %0
  %3 = phi %struct.student* [ %1, %0 ], [ %15, %2 ]
  %4 = getelementptr inbounds %struct.student, %struct.student* %3, i64 0, i32 0, i64 0
  %5 = getelementptr inbounds %struct.student, %struct.student* %3, i64 0, i32 1, i64 0
  %6 = getelementptr inbounds %struct.student, %struct.student* %3, i64 0, i32 2
  %7 = load i8, i8* %6, align 8, !tbaa !11
  %8 = sext i8 %7 to i32
  %9 = getelementptr inbounds %struct.student, %struct.student* %3, i64 0, i32 3
  %10 = load i32, i32* %9, align 4, !tbaa !13
  %11 = getelementptr inbounds %struct.student, %struct.student* %3, i64 0, i32 4, i64 0
  %12 = getelementptr inbounds %struct.student, %struct.student* %3, i64 0, i32 5, i64 0
  %13 = tail call i32 (i8*, ...) @printf(i8* nonnull dereferenceable(1) getelementptr inbounds ([19 x i8], [19 x i8]* @.str.3, i64 0, i64 0), i8* %4, i8* nonnull %5, i32 %8, i32 %10, i8* nonnull %11, i8* nonnull %12)
  %14 = getelementptr inbounds %struct.student, %struct.student* %3, i64 0, i32 6
  %15 = load %struct.student*, %struct.student** %14, align 8, !tbaa !14
  %16 = icmp eq %struct.student* %15, null
  br i1 %16, label %17, label %2, !llvm.loop !15

17:                                               ; preds = %2
  ret void
}

; Function Attrs: nofree nounwind
declare noundef i32 @printf(i8* nocapture noundef readonly, ...) local_unnamed_addr #2

; Function Attrs: nofree nounwind
declare noundef i32 @getc(%struct._IO_FILE* nocapture noundef) local_unnamed_addr #2


!llvm.module.flags = !{!0, !1, !2, !3}
!llvm.ident = !{!4}

!0 = !{i32 1, !"wchar_size", i32 4}
!1 = !{i32 7, !"PIC Level", i32 2}
!2 = !{i32 7, !"PIE Level", i32 2}
!3 = !{i32 7, !"uwtable", i32 1}
!4 = !{!"clang version 13.0.0"}
!5 = !{!6, !6, i64 0}
!6 = !{!"any pointer", !7, i64 0}
!7 = !{!"omnipotent char", !8, i64 0}
!8 = !{!"Simple C/C++ TBAA"}
!9 = !{!10, !10, i64 0}
!10 = !{!"int", !7, i64 0}
!11 = !{!12, !7, i64 40}
!12 = !{!"student", !7, i64 0, !7, i64 20, !7, i64 40, !10, i64 44, !7, i64 48, !7, i64 58, !6, i64 80}
!13 = !{!12, !10, i64 44}
!14 = !{!12, !6, i64 80}
!15 = distinct !{!15, !16}
!16 = !{!"llvm.loop.mustprogress"}
